target datalayout = "e-m:e-p270:32:32-p271:32:32-p272:64:64-i64:64-i128:128-f80:128-n8:16:32:64-S128"
target triple = "x86_64-pc-linux-gnu"

%struct.AVProbeData = type { ptr, ptr, i32, ptr }

; Function Attrs: alwaysinline nounwind willreturn memory(none) uwtable
define internal i32 @av_bswap32(i32 noundef %0) #3 {
  %2 = alloca i32, align 4
  store i32 %0, ptr %2, align 4, !tbaa !14
  %3 = load i32, ptr %2, align 4, !tbaa !14
  %4 = shl i32 %3, 8
  %5 = and i32 %4, 65280
  %6 = load i32, ptr %2, align 4, !tbaa !14
  %7 = lshr i32 %6, 8
  %8 = and i32 %7, 255
  %9 = or i32 %5, %8
  %10 = shl i32 %9, 16
  %11 = load i32, ptr %2, align 4, !tbaa !14
  %12 = lshr i32 %11, 16
  %13 = shl i32 %12, 8
  %14 = and i32 %13, 65280
  %15 = load i32, ptr %2, align 4, !tbaa !14
  %16 = lshr i32 %15, 16
  %17 = lshr i32 %16, 8
  %18 = and i32 %17, 255
  %19 = or i32 %14, %18
  %20 = or i32 %10, %19
  ret i32 %20
}

; Function Attrs: nounwind uwtable
define internal i32 @ea_probe(ptr noundef %0) #0 {
  %2 = alloca i32, align 4
  %3 = alloca ptr, align 8
  %4 = alloca i32, align 4
  %5 = alloca i32, align 4
  %6 = alloca i32, align 4
  store ptr %0, ptr %3, align 8, !tbaa !4
  call void @llvm.lifetime.start.p0(i64 4, ptr %4) #6
  call void @llvm.lifetime.start.p0(i64 4, ptr %5) #6
  %7 = load ptr, ptr %3, align 8, !tbaa !4
  %8 = getelementptr inbounds nuw %struct.AVProbeData, ptr %7, i32 0, i32 1
  %9 = load ptr, ptr %8, align 8, !tbaa !9
  %10 = getelementptr inbounds i8, ptr %9, i64 0
  %11 = load i32, ptr %10, align 1, !tbaa !13
  switch i32 %11, label %13 [
    i32 1749963569, label %12
    i32 1816675155, label %12
    i32 1145128275, label %12
    i32 1313163347, label %12
    i32 1413961323, label %12
    i32 1799635277, label %12
    i32 1749241933, label %12
    i32 1684559437, label %12
    i32 1749636685, label %12
    i32 911234625, label %12
  ]

12:                                               ; preds = %1, %1, %1, %1, %1, %1, %1, %1, %1, %1
  br label %14

13:                                               ; preds = %1
  store i32 0, ptr %2, align 4
  store i32 1, ptr %6, align 4
  br label %36

14:                                               ; preds = %12
  %15 = load ptr, ptr %3, align 8, !tbaa !4
  %16 = getelementptr inbounds nuw %struct.AVProbeData, ptr %15, i32 0, i32 1
  %17 = load ptr, ptr %16, align 8, !tbaa !9
  %18 = getelementptr inbounds i8, ptr %17, i64 4
  %19 = load i32, ptr %18, align 1, !tbaa !13
  store i32 %19, ptr %5, align 4, !tbaa !14
  %20 = load i32, ptr %5, align 4, !tbaa !14
  %21 = icmp ugt i32 %20, 1048575
  %22 = zext i1 %21 to i32
  store i32 %22, ptr %4, align 4, !tbaa !14
  %23 = load i32, ptr %4, align 4, !tbaa !14
  %24 = icmp ne i32 %23, 0
  br i1 %24, label %25, label %28

25:                                               ; preds = %14
  %26 = load i32, ptr %5, align 4, !tbaa !14
  %27 = call i32 @av_bswap32(i32 noundef %26) #7
  store i32 %27, ptr %5, align 4, !tbaa !14
  br label %28

28:                                               ; preds = %25, %14
  %29 = load i32, ptr %5, align 4, !tbaa !14
  %30 = icmp ugt i32 %29, 1048575
  br i1 %30, label %34, label %31

31:                                               ; preds = %28
  %32 = load i32, ptr %5, align 4, !tbaa !14
  %33 = icmp ult i32 %32, 8
  br i1 %33, label %34, label %35

34:                                               ; preds = %31, %28
  store i32 0, ptr %2, align 4
  store i32 1, ptr %6, align 4
  br label %36

35:                                               ; preds = %31
  store i32 100, ptr %2, align 4
  store i32 1, ptr %6, align 4
  br label %36

36:                                               ; preds = %35, %34, %13
  call void @llvm.lifetime.end.p0(i64 4, ptr %5) #6
  call void @llvm.lifetime.end.p0(i64 4, ptr %4) #6
  %37 = load i32, ptr %2, align 4
  ret i32 %37
}