; Function Attrs: mustprogress nofree norecurse nosync nounwind willreturn memory(read, inaccessiblemem: none) uwtable
define internal range(i32 0, 101) i32 @ea_probe(ptr noundef readonly captures(none) %0) #0 {
  %2 = getelementptr inbounds nuw i8, ptr %0, i64 8
  %3 = load ptr, ptr %2, align 8, !tbaa !4
  %4 = load i32, ptr %3, align 1, !tbaa !11
  switch i32 %4, label %11 [
    i32 1749963569, label %5
    i32 1816675155, label %5
    i32 1145128275, label %5
    i32 1313163347, label %5
    i32 1413961323, label %5
    i32 1799635277, label %5
    i32 1749241933, label %5
    i32 1684559437, label %5
    i32 1749636685, label %5
    i32 911234625, label %5
  ]

5:                                                ; preds = %1, %1, %1, %1, %1, %1, %1, %1, %1, %1
  %6 = getelementptr inbounds nuw i8, ptr %3, i64 4
  %7 = load i32, ptr %6, align 1, !tbaa !11
  %8 = icmp ugt i32 %7, 1048575
  %9 = tail call i32 @llvm.bswap.i32(i32 %7)
  %spec.select = select i1 %8, i32 %9, i32 %7
  %10 = add i32 %spec.select, -1048576
  %or.cond = icmp ult i32 %10, -1048568
  %. = select i1 %or.cond, i32 0, i32 100
  br label %11

11:                                               ; preds = %5, %1
  %.08 = phi i32 [ 0, %1 ], [ %., %5 ]
  ret i32 %.08
}